; Function Attrs: nounwind uwtable
define dso_local range(i32 -1, 1) i32 @rdbSaveRioWithEOFMark(i32 noundef %0, ptr noundef %1, ptr noundef captures(address_is_null) %2, ptr noundef captures(address_is_null) %3) local_unnamed_addr #0 {
  %5 = alloca [40 x i8], align 16
  call void @llvm.lifetime.start.p0(i64 40, ptr nonnull %5) #23
  %6 = tail call i32 @getpid() #23
  %7 = load i32, ptr @server, align 8, !tbaa !168
  %.not4.i = icmp eq i32 %6, %7
  %..i = select i1 %.not4.i, i32 2, i32 0
  tail call void @moduleFireServerEvent(i64 noundef 1, i32 noundef %..i, ptr noundef null) #23
  call void @getRandomHexChars(ptr noundef nonnull %5, i64 noundef 40) #23
  %.not = icmp eq ptr %2, null
  br i1 %.not, label %9, label %8

8:                                                ; preds = %4
  store i32 0, ptr %2, align 4, !tbaa !51
  br label %9

9:                                                ; preds = %8, %4
  %10 = getelementptr inbounds nuw i8, ptr %1, i64 48
  %11 = load i64, ptr %10, align 8, !tbaa !53
  %12 = and i64 %11, 6
  %.not.i = icmp eq i64 %12, 0
  br i1 %.not.i, label %.preheader.i, label %rioWrite.exit.thread

.preheader.i:                                     ; preds = %9
  %13 = getelementptr inbounds nuw i8, ptr %1, i64 64
  %14 = getelementptr inbounds nuw i8, ptr %1, i64 32
  %15 = getelementptr inbounds nuw i8, ptr %1, i64 8
  %16 = getelementptr inbounds nuw i8, ptr %1, i64 56
  br label %17

17:                                               ; preds = %27, %.preheader.i
  %.02539.i = phi i64 [ 5, %.preheader.i ], [ %29, %27 ]
  %.02738.i = phi ptr [ @.str.37, %.preheader.i ], [ %28, %27 ]
  %18 = load i64, ptr %13, align 8, !tbaa !55
  %.not32.not.i = icmp eq i64 %18, 0
  %19 = call i64 @llvm.umin.i64(i64 %18, i64 %.02539.i)
  %20 = select i1 %.not32.not.i, i64 %.02539.i, i64 %19
  %21 = load ptr, ptr %14, align 8, !tbaa !56
  %.not33.i = icmp eq ptr %21, null
  br i1 %.not33.i, label %23, label %22

22:                                               ; preds = %17
  call void %21(ptr noundef nonnull %1, ptr noundef %.02738.i, i64 noundef %20) #23
  br label %23

23:                                               ; preds = %22, %17
  %24 = load ptr, ptr %15, align 8, !tbaa !57
  %25 = call i64 %24(ptr noundef nonnull %1, ptr noundef %.02738.i, i64 noundef %20) #23
  %26 = icmp eq i64 %25, 0
  br i1 %26, label %rioWrite.exit.thread.sink.split, label %27

27:                                               ; preds = %23
  %28 = getelementptr inbounds nuw i8, ptr %.02738.i, i64 %20
  %29 = sub i64 %.02539.i, %20
  %30 = load i64, ptr %16, align 8, !tbaa !58
  %31 = add i64 %30, %20
  store i64 %31, ptr %16, align 8, !tbaa !58
  %.not31.i = icmp eq i64 %29, 0
  br i1 %.not31.i, label %rioWrite.exit, label %17

rioWrite.exit:                                    ; preds = %27
  %32 = load i64, ptr %10, align 8, !tbaa !53
  %33 = and i64 %32, 6
  %.not.i14 = icmp eq i64 %33, 0
  br i1 %.not.i14, label %.preheader.i16, label %rioWrite.exit.thread

.preheader.i16:                                   ; preds = %rioWrite.exit, %43
  %.02539.i17 = phi i64 [ %45, %43 ], [ 40, %rioWrite.exit ]
  %.02738.i18 = phi ptr [ %44, %43 ], [ %5, %rioWrite.exit ]
  %34 = load i64, ptr %13, align 8, !tbaa !55
  %.not32.not.i19 = icmp eq i64 %34, 0
  %35 = call i64 @llvm.umin.i64(i64 %34, i64 %.02539.i17)
  %36 = select i1 %.not32.not.i19, i64 %.02539.i17, i64 %35
  %37 = load ptr, ptr %14, align 8, !tbaa !56
  %.not33.i20 = icmp eq ptr %37, null
  br i1 %.not33.i20, label %39, label %38

38:                                               ; preds = %.preheader.i16
  call void %37(ptr noundef nonnull %1, ptr noundef %.02738.i18, i64 noundef %36) #23
  br label %39

39:                                               ; preds = %38, %.preheader.i16
  %40 = load ptr, ptr %15, align 8, !tbaa !57
  %41 = call i64 %40(ptr noundef nonnull %1, ptr noundef %.02738.i18, i64 noundef %36) #23
  %42 = icmp eq i64 %41, 0
  br i1 %42, label %rioWrite.exit.thread.sink.split, label %43

43:                                               ; preds = %39
  %44 = getelementptr inbounds nuw i8, ptr %.02738.i18, i64 %36
  %45 = sub i64 %.02539.i17, %36
  %46 = load i64, ptr %16, align 8, !tbaa !58
  %47 = add i64 %46, %36
  store i64 %47, ptr %16, align 8, !tbaa !58
  %.not31.i21 = icmp eq i64 %45, 0
  br i1 %.not31.i21, label %rioWrite.exit23, label %.preheader.i16

rioWrite.exit23:                                  ; preds = %43
  %48 = load i64, ptr %10, align 8, !tbaa !53
  %49 = and i64 %48, 6
  %.not.i24 = icmp eq i64 %49, 0
  br i1 %.not.i24, label %.preheader.i26, label %rioWrite.exit.thread

.preheader.i26:                                   ; preds = %rioWrite.exit23, %59
  %.02539.i27 = phi i64 [ %61, %59 ], [ 2, %rioWrite.exit23 ]
  %.02738.i28 = phi ptr [ %60, %59 ], [ @.str.38, %rioWrite.exit23 ]
  %50 = load i64, ptr %13, align 8, !tbaa !55
  %.not32.not.i29 = icmp eq i64 %50, 0
  %51 = call i64 @llvm.umin.i64(i64 %50, i64 %.02539.i27)
  %52 = select i1 %.not32.not.i29, i64 %.02539.i27, i64 %51
  %53 = load ptr, ptr %14, align 8, !tbaa !56
  %.not33.i30 = icmp eq ptr %53, null
  br i1 %.not33.i30, label %55, label %54

54:                                               ; preds = %.preheader.i26
  call void %53(ptr noundef nonnull %1, ptr noundef %.02738.i28, i64 noundef %52) #23
  br label %55

55:                                               ; preds = %54, %.preheader.i26
  %56 = load ptr, ptr %15, align 8, !tbaa !57
  %57 = call i64 %56(ptr noundef nonnull %1, ptr noundef %.02738.i28, i64 noundef %52) #23
  %58 = icmp eq i64 %57, 0
  br i1 %58, label %rioWrite.exit.thread.sink.split, label %59

59:                                               ; preds = %55
  %60 = getelementptr inbounds nuw i8, ptr %.02738.i28, i64 %52
  %61 = sub i64 %.02539.i27, %52
  %62 = load i64, ptr %16, align 8, !tbaa !58
  %63 = add i64 %62, %52
  store i64 %63, ptr %16, align 8, !tbaa !58
  %.not31.i31 = icmp eq i64 %61, 0
  br i1 %.not31.i31, label %rioWrite.exit33, label %.preheader.i26

rioWrite.exit33:                                  ; preds = %59
  %64 = call i32 @rdbSaveRio(i32 noundef %0, ptr noundef nonnull %1, ptr noundef %2, i32 noundef 2, ptr noundef %3)
  %65 = icmp eq i32 %64, -1
  br i1 %65, label %rioWrite.exit.thread, label %66

66:                                               ; preds = %rioWrite.exit33
  %67 = load i64, ptr %10, align 8, !tbaa !53
  %68 = and i64 %67, 6
  %.not.i34 = icmp eq i64 %68, 0
  br i1 %.not.i34, label %.preheader.i36, label %rioWrite.exit.thread

.preheader.i36:                                   ; preds = %66, %78
  %.02539.i37 = phi i64 [ %80, %78 ], [ 40, %66 ]
  %.02738.i38 = phi ptr [ %79, %78 ], [ %5, %66 ]
  %69 = load i64, ptr %13, align 8, !tbaa !55
  %.not32.not.i39 = icmp eq i64 %69, 0
  %70 = call i64 @llvm.umin.i64(i64 %69, i64 %.02539.i37)
  %71 = select i1 %.not32.not.i39, i64 %.02539.i37, i64 %70
  %72 = load ptr, ptr %14, align 8, !tbaa !56
  %.not33.i40 = icmp eq ptr %72, null
  br i1 %.not33.i40, label %74, label %73

73:                                               ; preds = %.preheader.i36
  call void %72(ptr noundef nonnull %1, ptr noundef %.02738.i38, i64 noundef %71) #23
  br label %74

74:                                               ; preds = %73, %.preheader.i36
  %75 = load ptr, ptr %15, align 8, !tbaa !57
  %76 = call i64 %75(ptr noundef nonnull %1, ptr noundef %.02738.i38, i64 noundef %71) #23
  %77 = icmp eq i64 %76, 0
  br i1 %77, label %rioWrite.exit.thread.sink.split, label %78

78:                                               ; preds = %74
  %79 = getelementptr inbounds nuw i8, ptr %.02738.i38, i64 %71
  %80 = sub i64 %.02539.i37, %71
  %81 = load i64, ptr %16, align 8, !tbaa !58
  %82 = add i64 %81, %71
  store i64 %82, ptr %16, align 8, !tbaa !58
  %.not31.i41 = icmp eq i64 %80, 0
  br i1 %.not31.i41, label %rioWrite.exit43, label %.preheader.i36

rioWrite.exit.thread.sink.split:                  ; preds = %23, %39, %55, %74
  %83 = load i64, ptr %10, align 8, !tbaa !53
  %84 = or i64 %83, 2
  store i64 %84, ptr %10, align 8, !tbaa !53
  br label %rioWrite.exit.thread

rioWrite.exit.thread:                             ; preds = %rioWrite.exit.thread.sink.split, %66, %rioWrite.exit23, %rioWrite.exit, %9, %rioWrite.exit33
  br i1 %.not, label %rioWrite.exit43, label %85

85:                                               ; preds = %rioWrite.exit.thread
  %86 = load i32, ptr %2, align 4, !tbaa !51
  %87 = icmp eq i32 %86, 0
  br i1 %87, label %88, label %rioWrite.exit43

88:                                               ; preds = %85
  %89 = tail call ptr @__errno_location() #28
  %90 = load i32, ptr %89, align 4, !tbaa !51
  store i32 %90, ptr %2, align 4, !tbaa !51
  br label %rioWrite.exit43

rioWrite.exit43:                                  ; preds = %78, %rioWrite.exit.thread, %85, %88
  %.sink = phi i32 [ 4, %88 ], [ 4, %85 ], [ 4, %rioWrite.exit.thread ], [ 3, %78 ]
  %.0 = phi i32 [ -1, %88 ], [ -1, %85 ], [ -1, %rioWrite.exit.thread ], [ 0, %78 ]
  call void @moduleFireServerEvent(i64 noundef 1, i32 noundef %.sink, ptr noundef null) #23
  call void @llvm.lifetime.end.p0(i64 40, ptr nonnull %5) #23
  ret i32 %.0
}